target datalayout = "e-m:e-p270:32:32-p271:32:32-p272:64:64-i64:64-i128:128-f80:128-n8:16:32:64-S128"
target triple = "x86_64-unknown-linux-gnu"

%union.anon = type { %struct.QTailQLink }
%struct.QTailQLink = type { ptr, ptr }
%struct.FWBootEntry = type { %union.anon.0, i32, ptr, ptr }
%union.anon.0 = type { %struct.QTailQLink }

@.str = private unnamed_addr constant [28 x i8] c"../qemu/system/bootdevice.c\00", align 1
@fw_boot_order = internal global %union.anon { %struct.QTailQLink { ptr null, ptr @fw_boot_order } }, align 8
@__func__.check_boot_index = private unnamed_addr constant [17 x i8] c"check_boot_index\00", align 1
@.str.4 = private unnamed_addr constant [39 x i8] c"The bootindex %d has already been used\00", align 1

; Function Attrs: nounwind sspstrong uwtable
define dso_local void @check_boot_index(i32 noundef %bootindex, ptr noundef %errp) #0 {
entry:
  %bootindex.addr = alloca i32, align 4
  %errp.addr = alloca ptr, align 8
  %i = alloca ptr, align 8
  store i32 %bootindex, ptr %bootindex.addr, align 4
  store ptr %errp, ptr %errp.addr, align 8
  %0 = load i32, ptr %bootindex.addr, align 4
  %cmp = icmp sge i32 %0, 0
  br i1 %cmp, label %if.then, label %if.end4

if.then:                                          ; preds = %entry
  %1 = load ptr, ptr @fw_boot_order, align 8
  store ptr %1, ptr %i, align 8
  br label %for.cond

for.cond:                                         ; preds = %for.inc, %if.then
  %2 = load ptr, ptr %i, align 8
  %tobool = icmp ne ptr %2, null
  br i1 %tobool, label %for.body, label %for.end

for.body:                                         ; preds = %for.cond
  %3 = load ptr, ptr %i, align 8
  %bootindex1 = getelementptr inbounds %struct.FWBootEntry, ptr %3, i32 0, i32 1
  %4 = load i32, ptr %bootindex1, align 8
  %5 = load i32, ptr %bootindex.addr, align 4
  %cmp2 = icmp eq i32 %4, %5
  br i1 %cmp2, label %if.then3, label %if.end

if.then3:                                         ; preds = %for.body
  %6 = load ptr, ptr %errp.addr, align 8
  %7 = load i32, ptr %bootindex.addr, align 4
  call void (ptr, ptr, i32, ptr, ptr, ...) @error_setg_internal(ptr noundef %6, ptr noundef @.str, i32 noundef 128, ptr noundef @__func__.check_boot_index, ptr noundef @.str.4, i32 noundef %7)
  br label %if.end4

if.end:                                           ; preds = %for.body
  br label %for.inc

for.inc:                                          ; preds = %if.end
  %8 = load ptr, ptr %i, align 8
  %link = getelementptr inbounds %struct.FWBootEntry, ptr %8, i32 0, i32 0
  %9 = load ptr, ptr %link, align 8
  store ptr %9, ptr %i, align 8
  br label %for.cond, !llvm.loop !7

for.end:                                          ; preds = %for.cond
  br label %if.end4

if.end4:                                          ; preds = %for.end, %if.then3, %entry
  ret void
}