; Function Attrs: nounwind sspstrong uwtable
define dso_local void @check_boot_index(i32 noundef %bootindex, ptr noundef %errp) local_unnamed_addr #1 {
entry:
  %cmp = icmp sgt i32 %bootindex, -1
  br i1 %cmp, label %for.cond, label %if.end4

for.cond:                                         ; preds = %entry, %for.body
  %i.0.in = phi ptr [ %i.0, %for.body ], [ @fw_boot_order, %entry ]
  %i.0 = load ptr, ptr %i.0.in, align 8
  %tobool.not = icmp eq ptr %i.0, null
  br i1 %tobool.not, label %if.end4, label %for.body

for.body:                                         ; preds = %for.cond
  %bootindex1 = getelementptr inbounds nuw i8, ptr %i.0, i64 16
  %0 = load i32, ptr %bootindex1, align 8
  %cmp2 = icmp eq i32 %0, %bootindex
  br i1 %cmp2, label %if.then3, label %for.cond, !llvm.loop !7

if.then3:                                         ; preds = %for.body
  tail call void (ptr, ptr, i32, ptr, ptr, ...) @error_setg_internal(ptr noundef %errp, ptr noundef nonnull @.str, i32 noundef 128, ptr noundef nonnull @__func__.check_boot_index, ptr noundef nonnull @.str.4, i32 noundef %bootindex) #11
  br label %if.end4

if.end4:                                          ; preds = %for.cond, %if.then3, %entry
  ret void
}